; Function Attrs: nounwind uwtable
define internal range(i32 0, 2) i32 @kdf_pvk_set_ctx_params(ptr noundef %0, ptr noundef %1) #0 {
  %3 = load ptr, ptr %0, align 8, !tbaa !3
  %4 = tail call ptr @ossl_prov_ctx_get0_libctx(ptr noundef %3) #5
  %5 = icmp eq ptr %1, null
  br i1 %5, label %pvk_set_membuf.exit24, label %ossl_param_is_empty.exit

ossl_param_is_empty.exit:                         ; preds = %2
  %6 = load ptr, ptr %1, align 8, !tbaa !17
  %.not = icmp eq ptr %6, null
  br i1 %.not, label %pvk_set_membuf.exit24, label %7

7:                                                ; preds = %ossl_param_is_empty.exit
  %8 = getelementptr inbounds nuw i8, ptr %0, i64 40
  %9 = tail call i32 @ossl_prov_digest_load_from_params(ptr noundef nonnull %8, ptr noundef nonnull %1, ptr noundef %4) #5
  %.not16 = icmp eq i32 %9, 0
  br i1 %.not16, label %pvk_set_membuf.exit24, label %10

10:                                               ; preds = %7
  %11 = tail call ptr @OSSL_PARAM_locate_const(ptr noundef nonnull %1, ptr noundef nonnull @.str.4) #5
  %.not17 = icmp eq ptr %11, null
  br i1 %.not17, label %pvk_set_membuf.exit, label %12

12:                                               ; preds = %10
  %13 = getelementptr inbounds nuw i8, ptr %0, i64 8
  %14 = getelementptr inbounds nuw i8, ptr %0, i64 16
  %15 = load ptr, ptr %13, align 8, !tbaa !20
  %16 = load i64, ptr %14, align 8, !tbaa !21
  tail call void @CRYPTO_clear_free(ptr noundef %15, i64 noundef %16, ptr noundef nonnull @.str, i32 noundef 119) #5
  %17 = getelementptr inbounds nuw i8, ptr %11, i64 24
  tail call void @llvm.memset.p0.i64(ptr noundef nonnull align 8 dereferenceable(16) %13, i8 0, i64 16, i1 false)
  %18 = load i64, ptr %17, align 8, !tbaa !22
  %19 = icmp eq i64 %18, 0
  br i1 %19, label %20, label %23

20:                                               ; preds = %12
  %21 = tail call noalias ptr @CRYPTO_malloc(i64 noundef 1, ptr noundef nonnull @.str, i32 noundef 124) #5
  store ptr %21, ptr %13, align 8, !tbaa !20
  %22 = icmp eq ptr %21, null
  br i1 %22, label %pvk_set_membuf.exit24, label %pvk_set_membuf.exit

23:                                               ; preds = %12
  %24 = getelementptr inbounds nuw i8, ptr %11, i64 16
  %25 = load ptr, ptr %24, align 8, !tbaa !23
  %.not.i = icmp eq ptr %25, null
  br i1 %.not.i, label %pvk_set_membuf.exit, label %26

26:                                               ; preds = %23
  %27 = tail call i32 @OSSL_PARAM_get_octet_string(ptr noundef nonnull %11, ptr noundef nonnull %13, i64 noundef 0, ptr noundef nonnull %14) #5
  %.not10.i = icmp eq i32 %27, 0
  br i1 %.not10.i, label %pvk_set_membuf.exit24, label %pvk_set_membuf.exit

pvk_set_membuf.exit:                              ; preds = %26, %23, %20, %10
  %28 = tail call ptr @OSSL_PARAM_locate_const(ptr noundef nonnull %1, ptr noundef nonnull @.str.5) #5
  %.not19 = icmp eq ptr %28, null
  br i1 %.not19, label %pvk_set_membuf.exit24, label %29

29:                                               ; preds = %pvk_set_membuf.exit
  %30 = getelementptr inbounds nuw i8, ptr %0, i64 24
  %31 = getelementptr inbounds nuw i8, ptr %0, i64 32
  %32 = load ptr, ptr %30, align 8, !tbaa !20
  %33 = load i64, ptr %31, align 8, !tbaa !21
  tail call void @CRYPTO_clear_free(ptr noundef %32, i64 noundef %33, ptr noundef nonnull @.str, i32 noundef 119) #5
  %34 = getelementptr inbounds nuw i8, ptr %28, i64 24
  tail call void @llvm.memset.p0.i64(ptr noundef nonnull align 8 dereferenceable(16) %30, i8 0, i64 16, i1 false)
  %35 = load i64, ptr %34, align 8, !tbaa !22
  %36 = icmp eq i64 %35, 0
  br i1 %36, label %37, label %40

37:                                               ; preds = %29
  %38 = tail call noalias ptr @CRYPTO_malloc(i64 noundef 1, ptr noundef nonnull @.str, i32 noundef 124) #5
  store ptr %38, ptr %30, align 8, !tbaa !20
  %39 = icmp eq ptr %38, null
  br i1 %39, label %pvk_set_membuf.exit24.thread, label %pvk_set_membuf.exit24

40:                                               ; preds = %29
  %41 = getelementptr inbounds nuw i8, ptr %28, i64 16
  %42 = load ptr, ptr %41, align 8, !tbaa !23
  %.not.i21 = icmp eq ptr %42, null
  br i1 %.not.i21, label %pvk_set_membuf.exit24, label %43

43:                                               ; preds = %40
  %44 = tail call i32 @OSSL_PARAM_get_octet_string(ptr noundef nonnull %28, ptr noundef nonnull %30, i64 noundef 0, ptr noundef nonnull %31) #5
  %.not10.i22 = icmp eq i32 %44, 0
  br i1 %.not10.i22, label %pvk_set_membuf.exit24.thread, label %pvk_set_membuf.exit24

pvk_set_membuf.exit24.thread:                     ; preds = %37, %43
  br label %pvk_set_membuf.exit24

pvk_set_membuf.exit24:                            ; preds = %26, %20, %2, %pvk_set_membuf.exit, %37, %40, %43, %pvk_set_membuf.exit24.thread, %7, %ossl_param_is_empty.exit
  %.0 = phi i32 [ 1, %ossl_param_is_empty.exit ], [ 0, %7 ], [ 0, %pvk_set_membuf.exit24.thread ], [ 1, %43 ], [ 1, %40 ], [ 1, %37 ], [ 1, %pvk_set_membuf.exit ], [ 1, %2 ], [ 0, %20 ], [ 0, %26 ]
  ret i32 %.0
}